; Function Attrs: nounwind uwtable
define internal noundef i32 @rtsp_write_close(ptr noundef %0) #0 {
  %2 = getelementptr inbounds nuw i8, ptr %0, i64 24
  %3 = load ptr, ptr %2, align 8, !tbaa !4
  tail call void @ff_rtsp_undo_setup(ptr noundef %0, i32 noundef 1) #6
  %4 = getelementptr inbounds nuw i8, ptr %3, i64 4768
  %5 = tail call i32 @ff_rtsp_send_cmd_async(ptr noundef %0, ptr noundef nonnull @.str.10, ptr noundef nonnull %4, ptr noundef null) #6
  tail call void @ff_rtsp_close_streams(ptr noundef %0) #6
  tail call void @ff_rtsp_close_connections(ptr noundef %0) #6
  tail call void @ff_network_close() #6
  ret i32 0
}